target datalayout = "e-m:e-p270:32:32-p271:32:32-p272:64:64-i64:64-i128:128-f80:128-n8:16:32:64-S128"
target triple = "x86_64-pc-linux-gnu"

%struct.Abc_Obj_t_ = type { ptr, ptr, i32, i32, %struct.Vec_Int_t_, %struct.Vec_Int_t_, %union.anon.1, %union.anon.2 }
%struct.Vec_Int_t_ = type { i32, i32, ptr }
%union.anon.1 = type { ptr }
%union.anon.2 = type { ptr }
%struct.Abc_Ntk_t_ = type { i32, i32, ptr, ptr, ptr, ptr, ptr, ptr, ptr, ptr, ptr, ptr, ptr, [11 x i32], i32, i32, i32, i32, ptr, i32, ptr, ptr, i32, i32, i32, double, i32, %struct.Vec_Int_t_, ptr, ptr, ptr, ptr, ptr, float, i32, ptr, ptr, ptr, ptr, ptr, ptr, ptr, ptr, ptr, ptr, ptr, ptr, ptr, ptr, ptr, ptr, ptr, ptr, ptr, ptr, ptr }
%struct.Vec_Ptr_t_ = type { i32, i32, ptr }

; Function Attrs: nounwind uwtable
define internal ptr @Vec_PtrEntry(ptr noundef %0, i32 noundef %1) #0 {
  %3 = alloca ptr, align 8
  %4 = alloca i32, align 4
  store ptr %0, ptr %3, align 8
  store i32 %1, ptr %4, align 4
  %5 = load ptr, ptr %3, align 8
  %6 = getelementptr inbounds %struct.Vec_Ptr_t_, ptr %5, i32 0, i32 2
  %7 = load ptr, ptr %6, align 8
  %8 = load i32, ptr %4, align 4
  %9 = sext i32 %8 to i64
  %10 = getelementptr inbounds ptr, ptr %7, i64 %9
  %11 = load ptr, ptr %10, align 8
  ret ptr %11
}

; Function Attrs: nounwind uwtable
define internal ptr @Abc_ObjFanout(ptr noundef %0, i32 noundef %1) #0 {
  %3 = alloca ptr, align 8
  %4 = alloca i32, align 4
  store ptr %0, ptr %3, align 8
  store i32 %1, ptr %4, align 4
  %5 = load ptr, ptr %3, align 8
  %6 = getelementptr inbounds %struct.Abc_Obj_t_, ptr %5, i32 0, i32 0
  %7 = load ptr, ptr %6, align 8
  %8 = getelementptr inbounds %struct.Abc_Ntk_t_, ptr %7, i32 0, i32 5
  %9 = load ptr, ptr %8, align 8
  %10 = getelementptr inbounds %struct.Vec_Ptr_t_, ptr %9, i32 0, i32 2
  %11 = load ptr, ptr %10, align 8
  %12 = load ptr, ptr %3, align 8
  %13 = getelementptr inbounds %struct.Abc_Obj_t_, ptr %12, i32 0, i32 5
  %14 = getelementptr inbounds %struct.Vec_Int_t_, ptr %13, i32 0, i32 2
  %15 = load ptr, ptr %14, align 8
  %16 = load i32, ptr %4, align 4
  %17 = sext i32 %16 to i64
  %18 = getelementptr inbounds i32, ptr %15, i64 %17
  %19 = load i32, ptr %18, align 4
  %20 = sext i32 %19 to i64
  %21 = getelementptr inbounds ptr, ptr %11, i64 %20
  %22 = load ptr, ptr %21, align 8
  ret ptr %22
}

; Function Attrs: nounwind uwtable
define internal i32 @Abc_ObjFanoutNum(ptr noundef %0) #0 {
  %2 = alloca ptr, align 8
  store ptr %0, ptr %2, align 8
  %3 = load ptr, ptr %2, align 8
  %4 = getelementptr inbounds %struct.Abc_Obj_t_, ptr %3, i32 0, i32 5
  %5 = getelementptr inbounds %struct.Vec_Int_t_, ptr %4, i32 0, i32 1
  %6 = load i32, ptr %5, align 4
  ret i32 %6
}

; Function Attrs: nounwind uwtable
define internal ptr @Abc_ObjFanin(ptr noundef %0, i32 noundef %1) #0 {
  %3 = alloca ptr, align 8
  %4 = alloca i32, align 4
  store ptr %0, ptr %3, align 8
  store i32 %1, ptr %4, align 4
  %5 = load ptr, ptr %3, align 8
  %6 = getelementptr inbounds %struct.Abc_Obj_t_, ptr %5, i32 0, i32 0
  %7 = load ptr, ptr %6, align 8
  %8 = getelementptr inbounds %struct.Abc_Ntk_t_, ptr %7, i32 0, i32 5
  %9 = load ptr, ptr %8, align 8
  %10 = getelementptr inbounds %struct.Vec_Ptr_t_, ptr %9, i32 0, i32 2
  %11 = load ptr, ptr %10, align 8
  %12 = load ptr, ptr %3, align 8
  %13 = getelementptr inbounds %struct.Abc_Obj_t_, ptr %12, i32 0, i32 4
  %14 = getelementptr inbounds %struct.Vec_Int_t_, ptr %13, i32 0, i32 2
  %15 = load ptr, ptr %14, align 8
  %16 = load i32, ptr %4, align 4
  %17 = sext i32 %16 to i64
  %18 = getelementptr inbounds i32, ptr %15, i64 %17
  %19 = load i32, ptr %18, align 4
  %20 = sext i32 %19 to i64
  %21 = getelementptr inbounds ptr, ptr %11, i64 %20
  %22 = load ptr, ptr %21, align 8
  ret ptr %22
}

; Function Attrs: nounwind uwtable
define internal i32 @Abc_ObjFaninNum(ptr noundef %0) #0 {
  %2 = alloca ptr, align 8
  store ptr %0, ptr %2, align 8
  %3 = load ptr, ptr %2, align 8
  %4 = getelementptr inbounds %struct.Abc_Obj_t_, ptr %3, i32 0, i32 4
  %5 = getelementptr inbounds %struct.Vec_Int_t_, ptr %4, i32 0, i32 1
  %6 = load i32, ptr %5, align 4
  ret i32 %6
}

; Function Attrs: nounwind uwtable
define internal ptr @Abc_NtkBox(ptr noundef %0, i32 noundef %1) #0 {
  %3 = alloca ptr, align 8
  %4 = alloca i32, align 4
  store ptr %0, ptr %3, align 8
  store i32 %1, ptr %4, align 4
  %5 = load ptr, ptr %3, align 8
  %6 = getelementptr inbounds %struct.Abc_Ntk_t_, ptr %5, i32 0, i32 11
  %7 = load ptr, ptr %6, align 8
  %8 = load i32, ptr %4, align 4
  %9 = call ptr @Vec_PtrEntry(ptr noundef %7, i32 noundef %8)
  ret ptr %9
}

; Function Attrs: nounwind uwtable
define internal i32 @Vec_PtrSize(ptr noundef %0) #0 {
  %2 = alloca ptr, align 8
  store ptr %0, ptr %2, align 8
  %3 = load ptr, ptr %2, align 8
  %4 = getelementptr inbounds %struct.Vec_Ptr_t_, ptr %3, i32 0, i32 1
  %5 = load i32, ptr %4, align 4
  ret i32 %5
}

; Function Attrs: nounwind uwtable
define internal ptr @Abc_NtkPo(ptr noundef %0, i32 noundef %1) #0 {
  %3 = alloca ptr, align 8
  %4 = alloca i32, align 4
  store ptr %0, ptr %3, align 8
  store i32 %1, ptr %4, align 4
  %5 = load ptr, ptr %3, align 8
  %6 = getelementptr inbounds %struct.Abc_Ntk_t_, ptr %5, i32 0, i32 7
  %7 = load ptr, ptr %6, align 8
  %8 = load i32, ptr %4, align 4
  %9 = call ptr @Vec_PtrEntry(ptr noundef %7, i32 noundef %8)
  ret ptr %9
}

; Function Attrs: nounwind uwtable
define internal i32 @Abc_NtkPoNum(ptr noundef %0) #0 {
  %2 = alloca ptr, align 8
  store ptr %0, ptr %2, align 8
  %3 = load ptr, ptr %2, align 8
  %4 = getelementptr inbounds %struct.Abc_Ntk_t_, ptr %3, i32 0, i32 7
  %5 = load ptr, ptr %4, align 8
  %6 = call i32 @Vec_PtrSize(ptr noundef %5)
  ret i32 %6
}

; Function Attrs: nounwind uwtable
define internal ptr @Abc_NtkPi(ptr noundef %0, i32 noundef %1) #0 {
  %3 = alloca ptr, align 8
  %4 = alloca i32, align 4
  store ptr %0, ptr %3, align 8
  store i32 %1, ptr %4, align 4
  %5 = load ptr, ptr %3, align 8
  %6 = getelementptr inbounds %struct.Abc_Ntk_t_, ptr %5, i32 0, i32 6
  %7 = load ptr, ptr %6, align 8
  %8 = load i32, ptr %4, align 4
  %9 = call ptr @Vec_PtrEntry(ptr noundef %7, i32 noundef %8)
  ret ptr %9
}

; Function Attrs: nounwind uwtable
define internal i32 @Abc_NtkPiNum(ptr noundef %0) #0 {
  %2 = alloca ptr, align 8
  store ptr %0, ptr %2, align 8
  %3 = load ptr, ptr %2, align 8
  %4 = getelementptr inbounds %struct.Abc_Ntk_t_, ptr %3, i32 0, i32 6
  %5 = load ptr, ptr %4, align 8
  %6 = call i32 @Vec_PtrSize(ptr noundef %5)
  ret i32 %6
}

; Function Attrs: nounwind uwtable
define i32 @Gia_ManFlattenLogicPrepare(ptr noundef %0) #0 {
  %2 = alloca ptr, align 8
  %3 = alloca ptr, align 8
  %4 = alloca ptr, align 8
  %5 = alloca i32, align 4
  %6 = alloca i32, align 4
  store ptr %0, ptr %2, align 8
  %7 = load ptr, ptr %2, align 8
  call void @Abc_NtkFillTemp(ptr noundef %7)
  store i32 0, ptr %5, align 4
  br label %8

8:                                                ; preds = %23, %1
  %9 = load i32, ptr %5, align 4
  %10 = load ptr, ptr %2, align 8
  %11 = call i32 @Abc_NtkPiNum(ptr noundef %10)
  %12 = icmp slt i32 %9, %11
  br i1 %12, label %13, label %17

13:                                               ; preds = %8
  %14 = load ptr, ptr %2, align 8
  %15 = load i32, ptr %5, align 4
  %16 = call ptr @Abc_NtkPi(ptr noundef %14, i32 noundef %15)
  store ptr %16, ptr %3, align 8
  br label %17

17:                                               ; preds = %13, %8
  %18 = phi i1 [ false, %8 ], [ true, %13 ]
  br i1 %18, label %19, label %26

19:                                               ; preds = %17
  %20 = load i32, ptr %5, align 4
  %21 = load ptr, ptr %3, align 8
  %22 = getelementptr inbounds %struct.Abc_Obj_t_, ptr %21, i32 0, i32 6
  store i32 %20, ptr %22, align 8
  br label %23

23:                                               ; preds = %19
  %24 = load i32, ptr %5, align 4
  %25 = add nsw i32 %24, 1
  store i32 %25, ptr %5, align 4
  br label %8, !llvm.loop !22

26:                                               ; preds = %17
  store i32 0, ptr %5, align 4
  br label %27

27:                                               ; preds = %42, %26
  %28 = load i32, ptr %5, align 4
  %29 = load ptr, ptr %2, align 8
  %30 = call i32 @Abc_NtkPoNum(ptr noundef %29)
  %31 = icmp slt i32 %28, %30
  br i1 %31, label %32, label %36

32:                                               ; preds = %27
  %33 = load ptr, ptr %2, align 8
  %34 = load i32, ptr %5, align 4
  %35 = call ptr @Abc_NtkPo(ptr noundef %33, i32 noundef %34)
  store ptr %35, ptr %3, align 8
  br label %36

36:                                               ; preds = %32, %27
  %37 = phi i1 [ false, %27 ], [ true, %32 ]
  br i1 %37, label %38, label %45

38:                                               ; preds = %36
  %39 = load i32, ptr %5, align 4
  %40 = load ptr, ptr %3, align 8
  %41 = getelementptr inbounds %struct.Abc_Obj_t_, ptr %40, i32 0, i32 6
  store i32 %39, ptr %41, align 8
  br label %42

42:                                               ; preds = %38
  %43 = load i32, ptr %5, align 4
  %44 = add nsw i32 %43, 1
  store i32 %44, ptr %5, align 4
  br label %27, !llvm.loop !23

45:                                               ; preds = %36
  store i32 0, ptr %5, align 4
  br label %46

46:                                               ; preds = %98, %45
  %47 = load i32, ptr %5, align 4
  %48 = load ptr, ptr %2, align 8
  %49 = getelementptr inbounds %struct.Abc_Ntk_t_, ptr %48, i32 0, i32 11
  %50 = load ptr, ptr %49, align 8
  %51 = call i32 @Vec_PtrSize(ptr noundef %50)
  %52 = icmp slt i32 %47, %51
  br i1 %52, label %53, label %57

53:                                               ; preds = %46
  %54 = load ptr, ptr %2, align 8
  %55 = load i32, ptr %5, align 4
  %56 = call ptr @Abc_NtkBox(ptr noundef %54, i32 noundef %55)
  store ptr %56, ptr %4, align 8
  br label %57

57:                                               ; preds = %53, %46
  %58 = phi i1 [ false, %46 ], [ true, %53 ]
  br i1 %58, label %59, label %101

59:                                               ; preds = %57
  store i32 0, ptr %6, align 4
  br label %60

60:                                               ; preds = %75, %59
  %61 = load i32, ptr %6, align 4
  %62 = load ptr, ptr %4, align 8
  %63 = call i32 @Abc_ObjFaninNum(ptr noundef %62)
  %64 = icmp slt i32 %61, %63
  br i1 %64, label %65, label %69

65:                                               ; preds = %60
  %66 = load ptr, ptr %4, align 8
  %67 = load i32, ptr %6, align 4
  %68 = call ptr @Abc_ObjFanin(ptr noundef %66, i32 noundef %67)
  store ptr %68, ptr %3, align 8
  br label %69

69:                                               ; preds = %65, %60
  %70 = phi i1 [ false, %60 ], [ true, %65 ]
  br i1 %70, label %71, label %78

71:                                               ; preds = %69
  %72 = load i32, ptr %6, align 4
  %73 = load ptr, ptr %3, align 8
  %74 = getelementptr inbounds %struct.Abc_Obj_t_, ptr %73, i32 0, i32 6
  store i32 %72, ptr %74, align 8
  br label %75

75:                                               ; preds = %71
  %76 = load i32, ptr %6, align 4
  %77 = add nsw i32 %76, 1
  store i32 %77, ptr %6, align 4
  br label %60, !llvm.loop !24

78:                                               ; preds = %69
  store i32 0, ptr %6, align 4
  br label %79

79:                                               ; preds = %94, %78
  %80 = load i32, ptr %6, align 4
  %81 = load ptr, ptr %4, align 8
  %82 = call i32 @Abc_ObjFanoutNum(ptr noundef %81)
  %83 = icmp slt i32 %80, %82
  br i1 %83, label %84, label %88

84:                                               ; preds = %79
  %85 = load ptr, ptr %4, align 8
  %86 = load i32, ptr %6, align 4
  %87 = call ptr @Abc_ObjFanout(ptr noundef %85, i32 noundef %86)
  store ptr %87, ptr %3, align 8
  br label %88

88:                                               ; preds = %84, %79
  %89 = phi i1 [ false, %79 ], [ true, %84 ]
  br i1 %89, label %90, label %97

90:                                               ; preds = %88
  %91 = load i32, ptr %6, align 4
  %92 = load ptr, ptr %3, align 8
  %93 = getelementptr inbounds %struct.Abc_Obj_t_, ptr %92, i32 0, i32 6
  store i32 %91, ptr %93, align 8
  br label %94

94:                                               ; preds = %90
  %95 = load i32, ptr %6, align 4
  %96 = add nsw i32 %95, 1
  store i32 %96, ptr %6, align 4
  br label %79, !llvm.loop !25

97:                                               ; preds = %88
  br label %98

98:                                               ; preds = %97
  %99 = load i32, ptr %5, align 4
  %100 = add nsw i32 %99, 1
  store i32 %100, ptr %5, align 4
  br label %46, !llvm.loop !26

101:                                              ; preds = %57
  %102 = load ptr, ptr %2, align 8
  %103 = call i32 @Abc_NtkPiNum(ptr noundef %102)
  %104 = load ptr, ptr %2, align 8
  %105 = call i32 @Abc_NtkPoNum(ptr noundef %104)
  %106 = add nsw i32 %103, %105
  ret i32 %106
}