; Function Attrs: nounwind uwtable
define i32 @Gia_ManFlattenLogicPrepare(ptr noundef %0) local_unnamed_addr #0 {
  tail call void @Abc_NtkFillTemp(ptr noundef %0) #13
  %2 = getelementptr i8, ptr %0, i64 40
  %.val5459 = load ptr, ptr %2, align 8
  %3 = getelementptr i8, ptr %.val5459, i64 4
  %.val54.val60 = load i32, ptr %3, align 4
  %4 = icmp sgt i32 %.val54.val60, 0
  br i1 %4, label %.lr.ph, label %.critedge.preheader

.critedge.preheader:                              ; preds = %.lr.ph, %1
  %5 = getelementptr i8, ptr %0, i64 48
  %.val5663 = load ptr, ptr %5, align 8
  %6 = getelementptr i8, ptr %.val5663, i64 4
  %.val56.val64 = load i32, ptr %6, align 4
  %7 = icmp sgt i32 %.val56.val64, 0
  br i1 %7, label %.critedge, label %.critedge2.preheader

.lr.ph:                                           ; preds = %1, %.lr.ph
  %indvars.iv = phi i64 [ %indvars.iv.next, %.lr.ph ], [ 0, %1 ]
  %.val5462 = phi ptr [ %.val54, %.lr.ph ], [ %.val5459, %1 ]
  %8 = getelementptr i8, ptr %.val5462, i64 8
  %.val48.val = load ptr, ptr %8, align 8
  %9 = getelementptr inbounds nuw ptr, ptr %.val48.val, i64 %indvars.iv
  %10 = load ptr, ptr %9, align 8
  %11 = getelementptr inbounds nuw i8, ptr %10, i64 56
  %12 = trunc nuw nsw i64 %indvars.iv to i32
  store i32 %12, ptr %11, align 8
  %indvars.iv.next = add nuw nsw i64 %indvars.iv, 1
  %.val54 = load ptr, ptr %2, align 8
  %13 = getelementptr i8, ptr %.val54, i64 4
  %.val54.val = load i32, ptr %13, align 4
  %14 = sext i32 %.val54.val to i64
  %15 = icmp slt i64 %indvars.iv.next, %14
  br i1 %15, label %.lr.ph, label %.critedge.preheader, !llvm.loop !21

.critedge2.preheader:                             ; preds = %.critedge, %.critedge.preheader
  %.val5592 = phi ptr [ %.val5663, %.critedge.preheader ], [ %.val56, %.critedge ]
  %16 = getelementptr inbounds nuw i8, ptr %0, i64 80
  %17 = load ptr, ptr %16, align 8
  %18 = getelementptr i8, ptr %17, i64 4
  %.val4774 = load i32, ptr %18, align 4
  %19 = icmp sgt i32 %.val4774, 0
  br i1 %19, label %.lr.ph76, label %.critedge4

.critedge:                                        ; preds = %.critedge.preheader, %.critedge
  %indvars.iv79 = phi i64 [ %indvars.iv.next80, %.critedge ], [ 0, %.critedge.preheader ]
  %.val5666 = phi ptr [ %.val56, %.critedge ], [ %.val5663, %.critedge.preheader ]
  %20 = getelementptr i8, ptr %.val5666, i64 8
  %.val52.val = load ptr, ptr %20, align 8
  %21 = getelementptr inbounds nuw ptr, ptr %.val52.val, i64 %indvars.iv79
  %22 = load ptr, ptr %21, align 8
  %23 = getelementptr inbounds nuw i8, ptr %22, i64 56
  %24 = trunc nuw nsw i64 %indvars.iv79 to i32
  store i32 %24, ptr %23, align 8
  %indvars.iv.next80 = add nuw nsw i64 %indvars.iv79, 1
  %.val56 = load ptr, ptr %5, align 8
  %25 = getelementptr i8, ptr %.val56, i64 4
  %.val56.val = load i32, ptr %25, align 4
  %26 = sext i32 %.val56.val to i64
  %27 = icmp slt i64 %indvars.iv.next80, %26
  br i1 %27, label %.critedge, label %.critedge2.preheader, !llvm.loop !22

.lr.ph76:                                         ; preds = %.critedge2.preheader, %.critedge8
  %indvars.iv88 = phi i64 [ %indvars.iv.next89, %.critedge8 ], [ 0, %.critedge2.preheader ]
  %28 = phi ptr [ %61, %.critedge8 ], [ %17, %.critedge2.preheader ]
  %29 = getelementptr i8, ptr %28, i64 8
  %.val57.val = load ptr, ptr %29, align 8
  %30 = getelementptr inbounds nuw ptr, ptr %.val57.val, i64 %indvars.iv88
  %31 = load ptr, ptr %30, align 8
  %32 = getelementptr i8, ptr %31, i64 28
  %.val68 = load i32, ptr %32, align 4
  %33 = icmp sgt i32 %.val68, 0
  br i1 %33, label %.lr.ph70, label %.critedge6.preheader

.lr.ph70:                                         ; preds = %.lr.ph76
  %34 = getelementptr i8, ptr %31, i64 32
  br label %38

.critedge6.preheader:                             ; preds = %38, %.lr.ph76
  %35 = getelementptr i8, ptr %31, i64 44
  %.val4971 = load i32, ptr %35, align 4
  %36 = icmp sgt i32 %.val4971, 0
  br i1 %36, label %.lr.ph73, label %.critedge8

.lr.ph73:                                         ; preds = %.critedge6.preheader
  %37 = getelementptr i8, ptr %31, i64 48
  br label %.critedge6

38:                                               ; preds = %.lr.ph70, %38
  %indvars.iv82 = phi i64 [ 0, %.lr.ph70 ], [ %indvars.iv.next83, %38 ]
  %.val45 = load ptr, ptr %31, align 8
  %.val46 = load ptr, ptr %34, align 8
  %39 = getelementptr i8, ptr %.val45, i64 32
  %.val45.val = load ptr, ptr %39, align 8
  %40 = getelementptr i8, ptr %.val45.val, i64 8
  %.val45.val.val = load ptr, ptr %40, align 8
  %41 = getelementptr inbounds nuw i32, ptr %.val46, i64 %indvars.iv82
  %42 = load i32, ptr %41, align 4
  %43 = sext i32 %42 to i64
  %44 = getelementptr inbounds ptr, ptr %.val45.val.val, i64 %43
  %45 = load ptr, ptr %44, align 8
  %46 = getelementptr inbounds nuw i8, ptr %45, i64 56
  %47 = trunc nuw nsw i64 %indvars.iv82 to i32
  store i32 %47, ptr %46, align 8
  %indvars.iv.next83 = add nuw nsw i64 %indvars.iv82, 1
  %.val = load i32, ptr %32, align 4
  %48 = sext i32 %.val to i64
  %49 = icmp slt i64 %indvars.iv.next83, %48
  br i1 %49, label %38, label %.critedge6.preheader, !llvm.loop !23

.critedge6:                                       ; preds = %.lr.ph73, %.critedge6
  %indvars.iv85 = phi i64 [ 0, %.lr.ph73 ], [ %indvars.iv.next86, %.critedge6 ]
  %.val50 = load ptr, ptr %31, align 8
  %.val51 = load ptr, ptr %37, align 8
  %50 = getelementptr i8, ptr %.val50, i64 32
  %.val50.val = load ptr, ptr %50, align 8
  %51 = getelementptr i8, ptr %.val50.val, i64 8
  %.val50.val.val = load ptr, ptr %51, align 8
  %52 = getelementptr inbounds nuw i32, ptr %.val51, i64 %indvars.iv85
  %53 = load i32, ptr %52, align 4
  %54 = sext i32 %53 to i64
  %55 = getelementptr inbounds ptr, ptr %.val50.val.val, i64 %54
  %56 = load ptr, ptr %55, align 8
  %57 = getelementptr inbounds nuw i8, ptr %56, i64 56
  %58 = trunc nuw nsw i64 %indvars.iv85 to i32
  store i32 %58, ptr %57, align 8
  %indvars.iv.next86 = add nuw nsw i64 %indvars.iv85, 1
  %.val49 = load i32, ptr %35, align 4
  %59 = sext i32 %.val49 to i64
  %60 = icmp slt i64 %indvars.iv.next86, %59
  br i1 %60, label %.critedge6, label %.critedge8, !llvm.loop !24

.critedge8:                                       ; preds = %.critedge6, %.critedge6.preheader
  %indvars.iv.next89 = add nuw nsw i64 %indvars.iv88, 1
  %61 = load ptr, ptr %16, align 8
  %62 = getelementptr i8, ptr %61, i64 4
  %.val47 = load i32, ptr %62, align 4
  %63 = sext i32 %.val47 to i64
  %64 = icmp slt i64 %indvars.iv.next89, %63
  br i1 %64, label %.lr.ph76, label %.critedge4.loopexit, !llvm.loop !25

.critedge4.loopexit:                              ; preds = %.critedge8
  %.val55.pre = load ptr, ptr %5, align 8
  br label %.critedge4

.critedge4:                                       ; preds = %.critedge4.loopexit, %.critedge2.preheader
  %.val55 = phi ptr [ %.val55.pre, %.critedge4.loopexit ], [ %.val5592, %.critedge2.preheader ]
  %.val53 = load ptr, ptr %2, align 8
  %65 = getelementptr i8, ptr %.val53, i64 4
  %.val53.val = load i32, ptr %65, align 4
  %66 = getelementptr i8, ptr %.val55, i64 4
  %.val55.val = load i32, ptr %66, align 4
  %67 = add nsw i32 %.val55.val, %.val53.val
  ret i32 %67
}